; Function Attrs: mustprogress nounwind uwtable
define void @_ZN6icu_779BytesTrieD2Ev(ptr noundef nonnull readonly align 8 captures(none) dereferenceable(28) %0) unnamed_addr #0 align 2 personality ptr @__gxx_personality_v0 {
  %2 = load ptr, ptr %0, align 8, !tbaa !3
  invoke void @uprv_free_77(ptr noundef %2)
          to label %3 unwind label %4

3:                                                ; preds = %1
  ret void

4:                                                ; preds = %1
  %5 = landingpad { ptr, i32 }
          catch ptr null
  %6 = extractvalue { ptr, i32 } %5, 0
  tail call void @__clang_call_terminate(ptr %6) #12
  unreachable
}